target datalayout = "e-m:e-p270:32:32-p271:32:32-p272:64:64-i64:64-i128:128-f80:128-n8:16:32:64-S128"
target triple = "x86_64-unknown-linux-gnu"

%struct.MemoryRegionOps = type { ptr, ptr, ptr, ptr, i32, %struct.anon, %struct.anon.5 }
%struct.anon = type { i32, i32, i8, ptr }
%struct.anon.5 = type { i32, i32, i8 }
%struct.SCSIBusInfo = type { i32, i32, i32, i32, ptr, ptr, ptr, ptr, ptr, ptr, ptr, ptr, ptr, ptr, ptr, ptr }
%struct.LSIState = type { %struct.PCIDevice, ptr, %struct.MemoryRegion, %struct.MemoryRegion, %struct.MemoryRegion, %struct.AddressSpace, i32, i32, i32, i32, [8 x i8], i32, %struct.SCSIBus, i32, i32, i32, %union.anon.4, ptr, i32, i32, i32, i32, i8, i8, i8, i8, i8, i8, i8, i8, i8, i8, i8, i8, i8, i8, i8, i8, i8, i8, i32, i32, i8, i8, i8, i8, i8, i8, i8, i8, i8, i8, i8, i8, i8, i8, i8, i8, i8, i8, i8, i8, i8, i8, i32, i32, i32, i32, i32, i32, i32, i32, i32, i32, i32, i32, i32, i32, [18 x i32], i8, i32, [8192 x i8] }
%struct.PCIDevice = type { %struct.DeviceState, i8, i8, ptr, ptr, ptr, ptr, ptr, i32, %struct.PCIReqIDCache, [64 x i8], [7 x %struct.PCIIORegion], %struct.AddressSpace, %struct.MemoryRegion, %struct.MemoryRegion, ptr, ptr, [3 x ptr], i8, i8, i32, i8, i32, ptr, ptr, ptr, ptr, ptr, ptr, %struct.MemoryRegion, %struct.MemoryRegion, %struct.MemoryRegion, ptr, i8, i32, i8, %struct.PCIExpressDevice, ptr, ptr, i32, i8, %struct.MemoryRegion, i32, ptr, ptr, ptr, ptr, ptr, i32 }
%struct.DeviceState = type { %struct.Object, ptr, ptr, i8, i8, i64, ptr, i32, i8, ptr, %struct.NamedGPIOListHead, %struct.NamedClockListHead, %struct.BusStateHead, i32, i32, i32, %struct.ResettableState, ptr, %struct.MemReentrancyGuard }
%struct.Object = type { ptr, ptr, ptr, i32, ptr }
%struct.NamedGPIOListHead = type { ptr }
%struct.NamedClockListHead = type { ptr }
%struct.BusStateHead = type { ptr }
%struct.ResettableState = type { i32, i8, i8 }
%struct.MemReentrancyGuard = type { i8 }
%struct.PCIReqIDCache = type { ptr, i32 }
%struct.PCIIORegion = type { i64, i64, i8, ptr, ptr }
%struct.PCIExpressDevice = type { i8, i8, i8, i16, %struct.PCIEAERLog, i16, i16, i16, %struct.PCIESriovPF, %struct.PCIESriovVF }
%struct.PCIEAERLog = type { i16, i16, ptr }
%struct.PCIESriovPF = type { i16, [7 x i8], ptr, ptr }
%struct.PCIESriovVF = type { ptr, i16 }
%struct.MemoryRegion = type { %struct.Object, i8, i8, i8, i8, i8, i8, i8, i8, i8, i8, ptr, ptr, ptr, ptr, ptr, ptr, i32, i128, i64, ptr, i64, i8, i8, i8, i8, i8, ptr, i64, i32, %union.anon.1, %union.anon.2, %union.anon.3, ptr, i32, ptr, ptr, i8 }
%union.anon.1 = type { %struct.QTailQLink }
%struct.QTailQLink = type { ptr, ptr }
%union.anon.2 = type { %struct.QTailQLink }
%union.anon.3 = type { %struct.QTailQLink }
%struct.AddressSpace = type { %struct.rcu_head, ptr, ptr, ptr, i32, i32, ptr, %union.anon, %union.anon.0 }
%struct.rcu_head = type { ptr, ptr }
%union.anon = type { %struct.QTailQLink }
%union.anon.0 = type { %struct.QTailQLink }
%struct.SCSIBus = type { %struct.BusState, i32, %struct.SCSISense, ptr, i32 }
%struct.BusState = type { %struct.Object, ptr, ptr, ptr, i32, i8, i8, i32, %union.BusChildHead, %struct.BusStateEntry, %struct.ResettableState }
%union.BusChildHead = type { %struct.QTailQLink }
%struct.BusStateEntry = type { ptr, ptr }
%struct.SCSISense = type { i8, i8, i8 }
%union.anon.4 = type { %struct.QTailQLink }

@.str = private unnamed_addr constant [11 x i8] c"lsi53c895a\00", align 1
@.str.3 = private unnamed_addr constant [7 x i8] c"device\00", align 1
@.str.4 = private unnamed_addr constant [101 x i8] c"/home/dtcxzyw/WorkSpace/Projects/compilers/llvm-opt-benchmark/bench/qemu/qemu/include/hw/qdev-core.h\00", align 1
@lsi_mmio_ops = internal constant %struct.MemoryRegionOps { ptr @lsi_mmio_read, ptr @lsi_mmio_write, ptr null, ptr null, i32 2, %struct.anon zeroinitializer, %struct.anon.5 { i32 1, i32 1, i8 0 } }, align 8
@.str.6 = private unnamed_addr constant [9 x i8] c"lsi-mmio\00", align 1
@lsi_ram_ops = internal constant %struct.MemoryRegionOps { ptr @lsi_ram_read, ptr @lsi_ram_write, ptr null, ptr null, i32 2, %struct.anon zeroinitializer, %struct.anon.5 zeroinitializer }, align 8
@.str.7 = private unnamed_addr constant [8 x i8] c"lsi-ram\00", align 1
@lsi_io_ops = internal constant %struct.MemoryRegionOps { ptr @lsi_io_read, ptr @lsi_io_write, ptr null, ptr null, i32 2, %struct.anon zeroinitializer, %struct.anon.5 { i32 1, i32 1, i8 0 } }, align 8
@.str.8 = private unnamed_addr constant [7 x i8] c"lsi-io\00", align 1
@.str.9 = private unnamed_addr constant [11 x i8] c"lsi-pci-io\00", align 1
@lsi_scsi_info = internal constant %struct.SCSIBusInfo { i32 1, i32 0, i32 7, i32 0, ptr null, ptr @lsi_transfer_data, ptr null, ptr @lsi_command_complete, ptr @lsi_request_cancelled, ptr null, ptr null, ptr null, ptr null, ptr null, ptr null, ptr null }, align 8
@__func__.DEVICE = private unnamed_addr constant [7 x i8] c"DEVICE\00", align 1
@.str.11 = private unnamed_addr constant [29 x i8] c"../qemu/hw/scsi/lsi53c895a.c\00", align 1
@__func__.LSI53C895A = private unnamed_addr constant [11 x i8] c"LSI53C895A\00", align 1

; Function Attrs: nounwind sspstrong uwtable
define internal void @scsi_bus_init(ptr noundef %bus, i64 noundef %bus_size, ptr noundef %host, ptr noundef %info) #0 {
entry:
  %bus.addr = alloca ptr, align 8
  %bus_size.addr = alloca i64, align 8
  %host.addr = alloca ptr, align 8
  %info.addr = alloca ptr, align 8
  store ptr %bus, ptr %bus.addr, align 8
  store i64 %bus_size, ptr %bus_size.addr, align 8
  store ptr %host, ptr %host.addr, align 8
  store ptr %info, ptr %info.addr, align 8
  %0 = load ptr, ptr %bus.addr, align 8
  %1 = load i64, ptr %bus_size.addr, align 8
  %2 = load ptr, ptr %host.addr, align 8
  %3 = load ptr, ptr %info.addr, align 8
  call void @scsi_bus_init_named(ptr noundef %0, i64 noundef %1, ptr noundef %2, ptr noundef %3, ptr noundef null)
  ret void
}

; Function Attrs: nounwind sspstrong uwtable
define internal ptr @DEVICE(ptr noundef %obj) #0 {
entry:
  %obj.addr = alloca ptr, align 8
  store ptr %obj, ptr %obj.addr, align 8
  %0 = load ptr, ptr %obj.addr, align 8
  %call = call ptr @object_dynamic_cast_assert(ptr noundef %0, ptr noundef @.str.3, ptr noundef @.str.4, i32 noundef 77, ptr noundef @__func__.DEVICE)
  ret ptr %call
}

; Function Attrs: nounwind sspstrong uwtable
define internal ptr @LSI53C895A(ptr noundef %obj) #0 {
entry:
  %obj.addr = alloca ptr, align 8
  store ptr %obj, ptr %obj.addr, align 8
  %0 = load ptr, ptr %obj.addr, align 8
  %call = call ptr @object_dynamic_cast_assert(ptr noundef %0, ptr noundef @.str, ptr noundef @.str.11, i32 noundef 312, ptr noundef @__func__.LSI53C895A)
  ret ptr %call
}

; Function Attrs: nounwind sspstrong uwtable
define internal void @lsi_scsi_realize(ptr noundef %dev, ptr noundef %errp) #0 {
entry:
  %dev.addr = alloca ptr, align 8
  %errp.addr = alloca ptr, align 8
  %s = alloca ptr, align 8
  %d = alloca ptr, align 8
  %pci_conf = alloca ptr, align 8
  store ptr %dev, ptr %dev.addr, align 8
  store ptr %errp, ptr %errp.addr, align 8
  %0 = load ptr, ptr %dev.addr, align 8
  %call = call ptr @LSI53C895A(ptr noundef %0)
  store ptr %call, ptr %s, align 8
  %1 = load ptr, ptr %dev.addr, align 8
  %call1 = call ptr @DEVICE(ptr noundef %1)
  store ptr %call1, ptr %d, align 8
  %2 = load ptr, ptr %dev.addr, align 8
  %config = getelementptr inbounds %struct.PCIDevice, ptr %2, i32 0, i32 3
  %3 = load ptr, ptr %config, align 8
  store ptr %3, ptr %pci_conf, align 8
  %4 = load ptr, ptr %pci_conf, align 8
  %arrayidx = getelementptr i8, ptr %4, i64 13
  store i8 -1, ptr %arrayidx, align 1
  %5 = load ptr, ptr %pci_conf, align 8
  %arrayidx2 = getelementptr i8, ptr %5, i64 61
  store i8 1, ptr %arrayidx2, align 1
  %6 = load ptr, ptr %s, align 8
  %mmio_io = getelementptr inbounds %struct.LSIState, ptr %6, i32 0, i32 2
  %7 = load ptr, ptr %s, align 8
  %8 = load ptr, ptr %s, align 8
  call void @memory_region_init_io(ptr noundef %mmio_io, ptr noundef %7, ptr noundef @lsi_mmio_ops, ptr noundef %8, ptr noundef @.str.6, i64 noundef 1024)
  %9 = load ptr, ptr %s, align 8
  %ram_io = getelementptr inbounds %struct.LSIState, ptr %9, i32 0, i32 3
  %10 = load ptr, ptr %s, align 8
  %11 = load ptr, ptr %s, align 8
  call void @memory_region_init_io(ptr noundef %ram_io, ptr noundef %10, ptr noundef @lsi_ram_ops, ptr noundef %11, ptr noundef @.str.7, i64 noundef 8192)
  %12 = load ptr, ptr %s, align 8
  %io_io = getelementptr inbounds %struct.LSIState, ptr %12, i32 0, i32 4
  %13 = load ptr, ptr %s, align 8
  %14 = load ptr, ptr %s, align 8
  call void @memory_region_init_io(ptr noundef %io_io, ptr noundef %13, ptr noundef @lsi_io_ops, ptr noundef %14, ptr noundef @.str.8, i64 noundef 256)
  %15 = load ptr, ptr %s, align 8
  %ram_io3 = getelementptr inbounds %struct.LSIState, ptr %15, i32 0, i32 3
  %disable_reentrancy_guard = getelementptr inbounds %struct.MemoryRegion, ptr %ram_io3, i32 0, i32 37
  store i8 1, ptr %disable_reentrancy_guard, align 8
  %16 = load ptr, ptr %s, align 8
  %mmio_io4 = getelementptr inbounds %struct.LSIState, ptr %16, i32 0, i32 2
  %disable_reentrancy_guard5 = getelementptr inbounds %struct.MemoryRegion, ptr %mmio_io4, i32 0, i32 37
  store i8 1, ptr %disable_reentrancy_guard5, align 8
  %17 = load ptr, ptr %s, align 8
  %pci_io_as = getelementptr inbounds %struct.LSIState, ptr %17, i32 0, i32 5
  %18 = load ptr, ptr %dev.addr, align 8
  %call6 = call ptr @pci_address_space_io(ptr noundef %18)
  call void @address_space_init(ptr noundef %pci_io_as, ptr noundef %call6, ptr noundef @.str.9)
  %19 = load ptr, ptr %d, align 8
  %20 = load ptr, ptr %s, align 8
  %ext_irq = getelementptr inbounds %struct.LSIState, ptr %20, i32 0, i32 1
  call void @qdev_init_gpio_out(ptr noundef %19, ptr noundef %ext_irq, i32 noundef 1)
  %21 = load ptr, ptr %dev.addr, align 8
  %22 = load ptr, ptr %s, align 8
  %io_io7 = getelementptr inbounds %struct.LSIState, ptr %22, i32 0, i32 4
  call void @pci_register_bar(ptr noundef %21, i32 noundef 0, i8 noundef zeroext 1, ptr noundef %io_io7)
  %23 = load ptr, ptr %dev.addr, align 8
  %24 = load ptr, ptr %s, align 8
  %mmio_io8 = getelementptr inbounds %struct.LSIState, ptr %24, i32 0, i32 2
  call void @pci_register_bar(ptr noundef %23, i32 noundef 1, i8 noundef zeroext 0, ptr noundef %mmio_io8)
  %25 = load ptr, ptr %dev.addr, align 8
  %26 = load ptr, ptr %s, align 8
  %ram_io9 = getelementptr inbounds %struct.LSIState, ptr %26, i32 0, i32 3
  call void @pci_register_bar(ptr noundef %25, i32 noundef 2, i8 noundef zeroext 0, ptr noundef %ram_io9)
  br label %do.body

do.body:                                          ; preds = %entry
  %27 = load ptr, ptr %s, align 8
  %queue = getelementptr inbounds %struct.LSIState, ptr %27, i32 0, i32 16
  store ptr null, ptr %queue, align 8
  %28 = load ptr, ptr %s, align 8
  %queue10 = getelementptr inbounds %struct.LSIState, ptr %28, i32 0, i32 16
  %29 = load ptr, ptr %s, align 8
  %queue11 = getelementptr inbounds %struct.LSIState, ptr %29, i32 0, i32 16
  %tql_prev = getelementptr inbounds %struct.QTailQLink, ptr %queue11, i32 0, i32 1
  store ptr %queue10, ptr %tql_prev, align 8
  br label %do.end

do.end:                                           ; preds = %do.body
  %30 = load ptr, ptr %s, align 8
  %bus = getelementptr inbounds %struct.LSIState, ptr %30, i32 0, i32 12
  %31 = load ptr, ptr %d, align 8
  call void @scsi_bus_init(ptr noundef %bus, i64 noundef 144, ptr noundef %31, ptr noundef @lsi_scsi_info)
  ret void
}