; Function Attrs: nounwind sspstrong uwtable
define internal void @lsi_scsi_realize(ptr noundef %dev, ptr readnone captures(none) %errp) #0 {
entry:
  %call.i = tail call ptr @object_dynamic_cast_assert(ptr noundef %dev, ptr noundef nonnull @.str, ptr noundef nonnull @.str.11, i32 noundef 312, ptr noundef nonnull @__func__.LSI53C895A) #12
  %call.i28 = tail call ptr @object_dynamic_cast_assert(ptr noundef %dev, ptr noundef nonnull @.str.3, ptr noundef nonnull @.str.4, i32 noundef 77, ptr noundef nonnull @__func__.DEVICE) #12
  %config = getelementptr inbounds nuw i8, ptr %dev, i64 168
  %0 = load ptr, ptr %config, align 8
  %arrayidx = getelementptr i8, ptr %0, i64 13
  store i8 -1, ptr %arrayidx, align 1
  %arrayidx2 = getelementptr i8, ptr %0, i64 61
  store i8 1, ptr %arrayidx2, align 1
  %mmio_io = getelementptr inbounds nuw i8, ptr %call.i, i64 2624
  tail call void @memory_region_init_io(ptr noundef nonnull %mmio_io, ptr noundef %call.i, ptr noundef nonnull @lsi_mmio_ops, ptr noundef %call.i, ptr noundef nonnull @.str.6, i64 noundef 1024) #12
  %ram_io = getelementptr inbounds nuw i8, ptr %call.i, i64 2896
  tail call void @memory_region_init_io(ptr noundef nonnull %ram_io, ptr noundef %call.i, ptr noundef nonnull @lsi_ram_ops, ptr noundef %call.i, ptr noundef nonnull @.str.7, i64 noundef 8192) #12
  %io_io = getelementptr inbounds nuw i8, ptr %call.i, i64 3168
  tail call void @memory_region_init_io(ptr noundef nonnull %io_io, ptr noundef %call.i, ptr noundef nonnull @lsi_io_ops, ptr noundef %call.i, ptr noundef nonnull @.str.8, i64 noundef 256) #12
  %disable_reentrancy_guard = getelementptr inbounds nuw i8, ptr %call.i, i64 3160
  store i8 1, ptr %disable_reentrancy_guard, align 8
  %disable_reentrancy_guard5 = getelementptr inbounds nuw i8, ptr %call.i, i64 2888
  store i8 1, ptr %disable_reentrancy_guard5, align 8
  %pci_io_as = getelementptr inbounds nuw i8, ptr %call.i, i64 3440
  %call6 = tail call ptr @pci_address_space_io(ptr noundef %dev) #12
  tail call void @address_space_init(ptr noundef nonnull %pci_io_as, ptr noundef %call6, ptr noundef nonnull @.str.9) #12
  %ext_irq = getelementptr inbounds nuw i8, ptr %call.i, i64 2608
  tail call void @qdev_init_gpio_out(ptr noundef %call.i28, ptr noundef nonnull %ext_irq, i32 noundef 1) #12
  tail call void @pci_register_bar(ptr noundef %dev, i32 noundef 0, i8 noundef zeroext 1, ptr noundef nonnull %io_io) #12
  tail call void @pci_register_bar(ptr noundef %dev, i32 noundef 1, i8 noundef zeroext 0, ptr noundef nonnull %mmio_io) #12
  tail call void @pci_register_bar(ptr noundef %dev, i32 noundef 2, i8 noundef zeroext 0, ptr noundef nonnull %ram_io) #12
  %queue = getelementptr inbounds nuw i8, ptr %call.i, i64 3720
  store ptr null, ptr %queue, align 8
  %tql_prev = getelementptr inbounds nuw i8, ptr %call.i, i64 3728
  store ptr %queue, ptr %tql_prev, align 8
  %bus = getelementptr inbounds nuw i8, ptr %call.i, i64 3560
  tail call void @scsi_bus_init_named(ptr noundef nonnull %bus, i64 noundef 144, ptr noundef %call.i28, ptr noundef nonnull @lsi_scsi_info, ptr noundef null) #12
  ret void
}